; Function Attrs: null_pointer_is_valid sspstrong uwtable
define internal void @bssmap_int_ho_req(ptr noundef %0, ptr noundef %1, ptr noundef %2, i32 noundef %3, i32 noundef %4) #1 {
  %6 = icmp sgt i32 %4, 0
  br i1 %6, label %7, label %13

7:                                                ; preds = %5
  %8 = tail call zeroext i16 @elem_tlv(ptr noundef %0, ptr noundef %1, ptr noundef %2, i8 noundef zeroext 4, i32 noundef 0, i32 noundef 4, i32 noundef %3, i32 noundef %4, ptr noundef null)
  %.not = icmp eq i16 %8, 0
  br i1 %.not, label %13, label %9

9:                                                ; preds = %7
  %10 = zext i16 %8 to i32
  %11 = add i32 %3, %10
  %12 = sub nsw i32 %4, %10
  br label %16

13:                                               ; preds = %7, %5
  %14 = tail call ptr @get_gsm_a_msg_string(i32 noundef 0, i32 noundef 4)
  %15 = tail call ptr (ptr, ptr, ptr, ptr, i32, i32, ptr, ...) @proto_tree_add_expert_format(ptr noundef %1, ptr noundef %2, ptr noundef nonnull @ei_gsm_a_bssmap_missing_mandatory_element, ptr noundef %0, i32 noundef %3, i32 noundef 0, ptr noundef nonnull @.str.139, i32 noundef 4, ptr noundef %14, ptr noundef nonnull @.str.137)
  br label %16

16:                                               ; preds = %13, %9
  %.057 = phi i32 [ %11, %9 ], [ %3, %13 ]
  %.0 = phi i32 [ %12, %9 ], [ %4, %13 ]
  %17 = icmp sgt i32 %.0, 0
  br i1 %17, label %18, label %24

18:                                               ; preds = %16
  %19 = tail call zeroext i16 @elem_tlv(ptr noundef %0, ptr noundef %1, ptr noundef %2, i8 noundef zeroext 5, i32 noundef 0, i32 noundef 5, i32 noundef %.057, i32 noundef %.0, ptr noundef null)
  %.not66 = icmp eq i16 %19, 0
  br i1 %.not66, label %24, label %20

20:                                               ; preds = %18
  %21 = zext i16 %19 to i32
  %22 = add i32 %.057, %21
  %23 = sub nsw i32 %.0, %21
  br label %27

24:                                               ; preds = %18, %16
  %25 = tail call ptr @get_gsm_a_msg_string(i32 noundef 0, i32 noundef 5)
  %26 = tail call ptr (ptr, ptr, ptr, ptr, i32, i32, ptr, ...) @proto_tree_add_expert_format(ptr noundef %1, ptr noundef %2, ptr noundef nonnull @ei_gsm_a_bssmap_missing_mandatory_element, ptr noundef %0, i32 noundef %.057, i32 noundef 0, ptr noundef nonnull @.str.139, i32 noundef 5, ptr noundef %25, ptr noundef nonnull @.str.137)
  br label %27

27:                                               ; preds = %24, %20
  %.158 = phi i32 [ %22, %20 ], [ %.057, %24 ]
  %.1 = phi i32 [ %23, %20 ], [ %.0, %24 ]
  %28 = icmp slt i32 %.1, 1
  br i1 %28, label %42, label %29

29:                                               ; preds = %27
  %30 = tail call zeroext i16 @elem_tlv(ptr noundef %0, ptr noundef %1, ptr noundef %2, i8 noundef zeroext 124, i32 noundef 0, i32 noundef 124, i32 noundef %.158, i32 noundef %.1, ptr noundef null)
  %31 = zext i16 %30 to i32
  %32 = sub nsw i32 %.1, %31
  %33 = icmp slt i32 %32, 1
  br i1 %33, label %42, label %34

34:                                               ; preds = %29
  %35 = add i32 %.158, %31
  %36 = tail call zeroext i16 @elem_tlv(ptr noundef %0, ptr noundef %1, ptr noundef %2, i8 noundef zeroext 125, i32 noundef 0, i32 noundef 125, i32 noundef %35, i32 noundef %32, ptr noundef nonnull @.str.1123)
  %37 = zext i16 %36 to i32
  %.not69 = icmp eq i32 %32, %37
  br i1 %.not69, label %42, label %38

38:                                               ; preds = %34
  %39 = sub nsw i32 %32, %37
  %40 = add i32 %35, %37
  %41 = tail call ptr @proto_tree_add_expert(ptr noundef %1, ptr noundef %2, ptr noundef nonnull @ei_gsm_a_bssmap_extraneous_data, ptr noundef %0, i32 noundef %40, i32 noundef %39)
  br label %42

42:                                               ; preds = %34, %38, %29, %27
  ret void
}